; Function Attrs: inlinehint nounwind uwtable
define internal fastcc noalias nonnull ptr @lean_alloc_ctor(i32 noundef range(i32 0, 13) %0, i32 noundef range(i32 1, 7) %1, i32 noundef range(i32 0, 3) %2) unnamed_addr #0 {
  %4 = shl nuw nsw i32 %1, 3
  %narrow = add nuw nsw i32 %4, 8
  %5 = or disjoint i32 %narrow, %2
  %6 = zext nneg i32 %5 to i64
  %7 = and i64 %6, 56
  %8 = and i64 %6, 3
  %.not.i.i = icmp eq i64 %8, 0
  %9 = select i1 %.not.i.i, i64 0, i64 8
  %10 = add nuw nsw i64 %9, %7
  tail call void @lean_inc_heartbeat() #4
  %11 = tail call noalias ptr @mi_malloc_small(i64 noundef %10) #4
  %12 = icmp eq ptr %11, null
  br i1 %12, label %13, label %lean_alloc_small_object.exit.i

13:                                               ; preds = %3
  tail call void @lean_internal_panic_out_of_memory() #5
  unreachable

lean_alloc_small_object.exit.i:                   ; preds = %3
  %14 = trunc nuw nsw i64 %10 to i32
  %15 = getelementptr inbounds nuw i8, ptr %11, i64 4
  %16 = load i32, ptr %15, align 4
  %17 = and i32 %16, -65536
  %18 = or disjoint i32 %17, %14
  store i32 %18, ptr %15, align 4
  %19 = icmp samesign ult i32 %5, %14
  br i1 %19, label %20, label %lean_alloc_ctor_memory.exit

20:                                               ; preds = %lean_alloc_small_object.exit.i
  %21 = getelementptr inbounds nuw i8, ptr %11, i64 %10
  %22 = getelementptr inbounds i8, ptr %21, i64 -8
  store i64 0, ptr %22, align 8, !tbaa !9
  %.pre = load i32, ptr %15, align 4
  br label %lean_alloc_ctor_memory.exit

lean_alloc_ctor_memory.exit:                      ; preds = %lean_alloc_small_object.exit.i, %20
  %23 = phi i32 [ %18, %lean_alloc_small_object.exit.i ], [ %.pre, %20 ]
  store i32 1, ptr %11, align 4, !tbaa !4
  %24 = shl nuw nsw i32 %0, 24
  %25 = and i32 %23, 65535
  %26 = or disjoint i32 %25, %24
  %27 = shl nuw nsw i32 %1, 16
  %28 = or disjoint i32 %26, %27
  store i32 %28, ptr %15, align 4
  ret ptr %11
}